; ModuleID = '63/1074.c'
source_filename = "63/1074.c"
target datalayout = "e-m:e-p270:32:32-p271:32:32-p272:64:64-i64:64-f80:128-n8:16:32:64-S128"
target triple = "x86_64-pc-linux-gnu"

@.str = private unnamed_addr constant [5 x i8] c"%d%d\00", align 1
@.str.1 = private unnamed_addr constant [3 x i8] c"%d\00", align 1
@.str.2 = private unnamed_addr constant [4 x i8] c"%d \00", align 1
@.str.3 = private unnamed_addr constant [4 x i8] c"%d\0A\00", align 1

; Function Attrs: noinline nounwind uwtable
define dso_local i32 @main() #0 {
  %1 = alloca i32, align 4
  %2 = alloca [100 x [100 x i32]], align 16
  %3 = alloca [100 x [100 x i32]], align 16
  %4 = alloca i32, align 4
  %5 = alloca i32, align 4
  %6 = alloca i32, align 4
  %7 = alloca i32, align 4
  %8 = alloca i32, align 4
  %9 = alloca i32, align 4
  %10 = alloca i32, align 4
  %11 = alloca i32, align 4
  %12 = alloca i32, align 4
  store i32 0, i32* %1, align 4
  %13 = call i32 (i8*, ...) @__isoc99_scanf(i8* getelementptr inbounds ([5 x i8], [5 x i8]* @.str, i64 0, i64 0), i32* %4, i32* %5)
  store i32 0, i32* %8, align 4
  br label %14

14:                                               ; preds = %35, %0
  %15 = load i32, i32* %8, align 4
  %16 = load i32, i32* %4, align 4
  %17 = icmp slt i32 %15, %16
  br i1 %17, label %18, label %38

18:                                               ; preds = %14
  store i32 0, i32* %9, align 4
  br label %19

19:                                               ; preds = %31, %18
  %20 = load i32, i32* %9, align 4
  %21 = load i32, i32* %5, align 4
  %22 = icmp slt i32 %20, %21
  br i1 %22, label %23, label %34

23:                                               ; preds = %19
  %24 = load i32, i32* %8, align 4
  %25 = sext i32 %24 to i64
  %26 = getelementptr inbounds [100 x [100 x i32]], [100 x [100 x i32]]* %2, i64 0, i64 %25
  %27 = load i32, i32* %9, align 4
  %28 = sext i32 %27 to i64
  %29 = getelementptr inbounds [100 x i32], [100 x i32]* %26, i64 0, i64 %28
  %30 = call i32 (i8*, ...) @__isoc99_scanf(i8* getelementptr inbounds ([3 x i8], [3 x i8]* @.str.1, i64 0, i64 0), i32* %29)
  br label %31

31:                                               ; preds = %23
  %32 = load i32, i32* %9, align 4
  %33 = add nsw i32 %32, 1
  store i32 %33, i32* %9, align 4
  br label %19

34:                                               ; preds = %19
  br label %35

35:                                               ; preds = %34
  %36 = load i32, i32* %8, align 4
  %37 = add nsw i32 %36, 1
  store i32 %37, i32* %8, align 4
  br label %14

38:                                               ; preds = %14
  %39 = call i32 (i8*, ...) @__isoc99_scanf(i8* getelementptr inbounds ([5 x i8], [5 x i8]* @.str, i64 0, i64 0), i32* %6, i32* %7)
  store i32 0, i32* %8, align 4
  br label %40

40:                                               ; preds = %61, %38
  %41 = load i32, i32* %8, align 4
  %42 = load i32, i32* %6, align 4
  %43 = icmp slt i32 %41, %42
  br i1 %43, label %44, label %64

44:                                               ; preds = %40
  store i32 0, i32* %9, align 4
  br label %45

45:                                               ; preds = %57, %44
  %46 = load i32, i32* %9, align 4
  %47 = load i32, i32* %7, align 4
  %48 = icmp slt i32 %46, %47
  br i1 %48, label %49, label %60

49:                                               ; preds = %45
  %50 = load i32, i32* %8, align 4
  %51 = sext i32 %50 to i64
  %52 = getelementptr inbounds [100 x [100 x i32]], [100 x [100 x i32]]* %3, i64 0, i64 %51
  %53 = load i32, i32* %9, align 4
  %54 = sext i32 %53 to i64
  %55 = getelementptr inbounds [100 x i32], [100 x i32]* %52, i64 0, i64 %54
  %56 = call i32 (i8*, ...) @__isoc99_scanf(i8* getelementptr inbounds ([3 x i8], [3 x i8]* @.str.1, i64 0, i64 0), i32* %55)
  br label %57

57:                                               ; preds = %49
  %58 = load i32, i32* %9, align 4
  %59 = add nsw i32 %58, 1
  store i32 %59, i32* %9, align 4
  br label %45

60:                                               ; preds = %45
  br label %61

61:                                               ; preds = %60
  %62 = load i32, i32* %8, align 4
  %63 = add nsw i32 %62, 1
  store i32 %63, i32* %8, align 4
  br label %40

64:                                               ; preds = %40
  %65 = load i32, i32* %7, align 4
  %66 = sub nsw i32 %65, 1
  store i32 %66, i32* %12, align 4
  store i32 0, i32* %8, align 4
  br label %67

67:                                               ; preds = %137, %64
  %68 = load i32, i32* %8, align 4
  %69 = load i32, i32* %4, align 4
  %70 = icmp slt i32 %68, %69
  br i1 %70, label %71, label %140

71:                                               ; preds = %67
  store i32 0, i32* %9, align 4
  br label %72

72:                                               ; preds = %105, %71
  %73 = load i32, i32* %9, align 4
  %74 = load i32, i32* %12, align 4
  %75 = icmp slt i32 %73, %74
  br i1 %75, label %76, label %108

76:                                               ; preds = %72
  store i32 0, i32* %11, align 4
  store i32 0, i32* %10, align 4
  br label %77

77:                                               ; preds = %99, %76
  %78 = load i32, i32* %10, align 4
  %79 = load i32, i32* %5, align 4
  %80 = icmp slt i32 %78, %79
  br i1 %80, label %81, label %102

81:                                               ; preds = %77
  %82 = load i32, i32* %8, align 4
  %83 = sext i32 %82 to i64
  %84 = getelementptr inbounds [100 x [100 x i32]], [100 x [100 x i32]]* %2, i64 0, i64 %83
  %85 = load i32, i32* %10, align 4
  %86 = sext i32 %85 to i64
  %87 = getelementptr inbounds [100 x i32], [100 x i32]* %84, i64 0, i64 %86
  %88 = load i32, i32* %87, align 4
  %89 = load i32, i32* %10, align 4
  %90 = sext i32 %89 to i64
  %91 = getelementptr inbounds [100 x [100 x i32]], [100 x [100 x i32]]* %3, i64 0, i64 %90
  %92 = load i32, i32* %9, align 4
  %93 = sext i32 %92 to i64
  %94 = getelementptr inbounds [100 x i32], [100 x i32]* %91, i64 0, i64 %93
  %95 = load i32, i32* %94, align 4
  %96 = mul nsw i32 %88, %95
  %97 = load i32, i32* %11, align 4
  %98 = add nsw i32 %97, %96
  store i32 %98, i32* %11, align 4
  br label %99

99:                                               ; preds = %81
  %100 = load i32, i32* %10, align 4
  %101 = add nsw i32 %100, 1
  store i32 %101, i32* %10, align 4
  br label %77

102:                                              ; preds = %77
  %103 = load i32, i32* %11, align 4
  %104 = call i32 (i8*, ...) @printf(i8* getelementptr inbounds ([4 x i8], [4 x i8]* @.str.2, i64 0, i64 0), i32 %103)
  br label %105

105:                                              ; preds = %102
  %106 = load i32, i32* %9, align 4
  %107 = add nsw i32 %106, 1
  store i32 %107, i32* %9, align 4
  br label %72

108:                                              ; preds = %72
  store i32 0, i32* %11, align 4
  store i32 0, i32* %10, align 4
  br label %109

109:                                              ; preds = %131, %108
  %110 = load i32, i32* %10, align 4
  %111 = load i32, i32* %5, align 4
  %112 = icmp slt i32 %110, %111
  br i1 %112, label %113, label %134

113:                                              ; preds = %109
  %114 = load i32, i32* %8, align 4
  %115 = sext i32 %114 to i64
  %116 = getelementptr inbounds [100 x [100 x i32]], [100 x [100 x i32]]* %2, i64 0, i64 %115
  %117 = load i32, i32* %10, align 4
  %118 = sext i32 %117 to i64
  %119 = getelementptr inbounds [100 x i32], [100 x i32]* %116, i64 0, i64 %118
  %120 = load i32, i32* %119, align 4
  %121 = load i32, i32* %10, align 4
  %122 = sext i32 %121 to i64
  %123 = getelementptr inbounds [100 x [100 x i32]], [100 x [100 x i32]]* %3, i64 0, i64 %122
  %124 = load i32, i32* %9, align 4
  %125 = sext i32 %124 to i64
  %126 = getelementptr inbounds [100 x i32], [100 x i32]* %123, i64 0, i64 %125
  %127 = load i32, i32* %126, align 4
  %128 = mul nsw i32 %120, %127
  %129 = load i32, i32* %11, align 4
  %130 = add nsw i32 %129, %128
  store i32 %130, i32* %11, align 4
  br label %131

131:                                              ; preds = %113
  %132 = load i32, i32* %10, align 4
  %133 = add nsw i32 %132, 1
  store i32 %133, i32* %10, align 4
  br label %109

134:                                              ; preds = %109
  %135 = load i32, i32* %11, align 4
  %136 = call i32 (i8*, ...) @printf(i8* getelementptr inbounds ([4 x i8], [4 x i8]* @.str.3, i64 0, i64 0), i32 %135)
  br label %137

137:                                              ; preds = %134
  %138 = load i32, i32* %8, align 4
  %139 = add nsw i32 %138, 1
  store i32 %139, i32* %8, align 4
  br label %67

140:                                              ; preds = %67
  ret i32 0
}

declare dso_local i32 @__isoc99_scanf(i8*, ...) #1

declare dso_local i32 @printf(i8*, ...) #1


!llvm.module.flags = !{!0}
!llvm.ident = !{!1}

!0 = !{i32 1, !"wchar_size", i32 4}
!1 = !{!"clang version 10.0.0-4ubuntu1 "}
